; Function Attrs: mustprogress uwtable
define void @_ZN5Ipopt19StandardScalingBase22apply_vector_scaling_dERKNS_8SmartPtrIKNS_6VectorEEE(ptr dead_on_unwind noalias writable writeonly sret(%"class.Ipopt::SmartPtr.1") align 8 captures(none) initializes((0, 8)) %0, ptr noundef nonnull align 8 dereferenceable(72) %1, ptr noundef nonnull align 8 dereferenceable(8) %2) unnamed_addr #7 align 2 personality ptr @__gxx_personality_v0 {
  %4 = alloca %"class.Ipopt::SmartPtr.0", align 8
  %5 = getelementptr inbounds nuw i8, ptr %1, i64 48
  %6 = load ptr, ptr %5, align 8, !tbaa !107
  %.not = icmp eq ptr %6, null
  br i1 %.not, label %.critedge.thread, label %7

7:                                                ; preds = %3
  %8 = getelementptr inbounds nuw i8, ptr %6, i64 24
  %9 = load ptr, ptr %8, align 8, !tbaa !20, !noalias !174
  %.not.i.i.i.i = icmp eq ptr %9, null
  br i1 %.not.i.i.i.i, label %.critedge.thread, label %10

10:                                               ; preds = %7
  %11 = getelementptr inbounds nuw i8, ptr %9, i64 8
  %12 = load i32, ptr %11, align 8, !tbaa !3, !noalias !174
  %13 = icmp eq i32 %12, 0
  br i1 %13, label %14, label %.critedge

14:                                               ; preds = %10
  %15 = load ptr, ptr %9, align 8, !tbaa !8
  %16 = getelementptr inbounds nuw i8, ptr %15, i64 8
  %17 = load ptr, ptr %16, align 8
  tail call void %17(ptr noundef nonnull align 8 dereferenceable(205) %9) #17
  br label %.critedge

.critedge:                                        ; preds = %10, %14
  call void @llvm.lifetime.start.p0(i64 8, ptr nonnull %4) #17
  %18 = load ptr, ptr %1, align 8, !tbaa !8
  %19 = getelementptr inbounds nuw i8, ptr %18, i64 112
  %20 = load ptr, ptr %19, align 8
  call void %20(ptr dead_on_unwind nonnull writable sret(%"class.Ipopt::SmartPtr.0") align 8 %4, ptr noundef nonnull align 8 dereferenceable(72) %1, ptr noundef nonnull align 8 dereferenceable(8) %2)
  call void @llvm.experimental.noalias.scope.decl(metadata !179)
  %21 = load ptr, ptr %4, align 8, !tbaa !20, !noalias !179
  %.not.i.i.i = icmp eq ptr %21, null
  br i1 %.not.i.i.i, label %.thread24, label %22

.thread24:                                        ; preds = %.critedge
  store ptr null, ptr %0, align 8, !tbaa !14, !alias.scope !179
  br label %_ZN5Ipopt8SmartPtrINS_6VectorEED2Ev.exit

22:                                               ; preds = %.critedge
  %23 = getelementptr inbounds nuw i8, ptr %21, i64 8
  %24 = load i32, ptr %23, align 8, !tbaa !3, !noalias !179
  store ptr %21, ptr %0, align 8, !tbaa !14, !alias.scope !179
  %25 = icmp eq i32 %24, 0
  br i1 %25, label %26, label %_ZN5Ipopt8SmartPtrINS_6VectorEED2Ev.exit

26:                                               ; preds = %22
  %27 = load ptr, ptr %21, align 8, !tbaa !8
  %28 = getelementptr inbounds nuw i8, ptr %27, i64 8
  %29 = load ptr, ptr %28, align 8
  call void %29(ptr noundef nonnull align 8 dereferenceable(205) %21) #17
  br label %_ZN5Ipopt8SmartPtrINS_6VectorEED2Ev.exit

_ZN5Ipopt8SmartPtrINS_6VectorEED2Ev.exit:         ; preds = %.thread24, %22, %26
  call void @llvm.lifetime.end.p0(i64 8, ptr nonnull %4) #17
  br label %35

.critedge.thread:                                 ; preds = %7, %3
  %30 = load ptr, ptr %2, align 8, !tbaa !14
  %.not.i.i.i17 = icmp eq ptr %30, null
  br i1 %.not.i.i.i17, label %_ZN5Ipopt8SmartPtrIKNS_6VectorEEC2ERKS3_.exit, label %31

31:                                               ; preds = %.critedge.thread
  %32 = getelementptr inbounds nuw i8, ptr %30, i64 8
  %33 = load i32, ptr %32, align 8, !tbaa !3
  %34 = add nsw i32 %33, 1
  store i32 %34, ptr %32, align 8, !tbaa !3
  br label %_ZN5Ipopt8SmartPtrIKNS_6VectorEEC2ERKS3_.exit

_ZN5Ipopt8SmartPtrIKNS_6VectorEEC2ERKS3_.exit:    ; preds = %.critedge.thread, %31
  store ptr %30, ptr %0, align 8, !tbaa !14
  br label %35

35:                                               ; preds = %_ZN5Ipopt8SmartPtrIKNS_6VectorEEC2ERKS3_.exit, %_ZN5Ipopt8SmartPtrINS_6VectorEED2Ev.exit
  ret void
}